; Function Attrs: mustprogress nofree norecurse nosync nounwind willreturn memory(write, argmem: readwrite, inaccessiblemem: none) uwtable
define hidden noundef signext i8 @nfaExecGough8_queueInitState(ptr noundef readonly captures(none) %0, ptr noundef readonly captures(none) %1) local_unnamed_addr #5 {
  %3 = getelementptr inbounds nuw i8, ptr %1, i64 16
  %4 = load ptr, ptr %3, align 8
  %5 = getelementptr inbounds nuw i8, ptr %0, i64 24
  %6 = load i32, ptr %5, align 8
  %7 = zext i32 %6 to i64
  tail call void @llvm.memset.p0.i64(ptr align 1 %4, i8 0, i64 %7, i1 false)
  ret i8 0
}